target datalayout = "e-m:e-p270:32:32-p271:32:32-p272:64:64-i64:64-i128:128-f80:128-n8:16:32:64-S128"
target triple = "x86_64-pc-linux-gnu"

%class.LibRaw = type { ptr, %struct.libraw_data_t, ptr, %struct.libraw_internal_data_t, [2048 x %struct.decode], ptr, ptr, [10 x %struct.tiff_ifd_t], %class.libraw_memmgr, %struct.libraw_callbacks_t, { i64, i64 }, { i64, i64 }, { i64, i64 }, ptr, ptr, ptr, i64, ptr, ptr, ptr, ptr }
%struct.libraw_data_t = type { ptr, %struct.libraw_image_sizes_t, %struct.libraw_iparams_t, %struct.libraw_lensinfo_t, %struct.libraw_makernotes_t, %struct.libraw_shootinginfo_t, %struct.libraw_output_params_t, %struct.libraw_raw_unpack_params_t, i32, i32, %struct.libraw_colordata_t, %struct.libraw_imgother_t, %struct.libraw_thumbnail_t, %struct.libraw_thumbnail_list_t, %struct.libraw_rawdata_t, ptr }
%struct.libraw_image_sizes_t = type { i16, i16, i16, i16, i16, i16, i16, i16, i32, double, i32, [8 x [4 x i32]], i16, [2 x %struct.libraw_raw_inset_crop_t] }
%struct.libraw_raw_inset_crop_t = type { i16, i16, i16, i16 }
%struct.libraw_iparams_t = type { [4 x i8], [64 x i8], [64 x i8], [64 x i8], [64 x i8], [64 x i8], i32, i32, i32, i32, i32, i32, [6 x [6 x i8]], [6 x [6 x i8]], [5 x i8], i32, ptr }
%struct.libraw_lensinfo_t = type { float, float, float, float, float, [128 x i8], [128 x i8], [128 x i8], [128 x i8], i16, %struct.libraw_nikonlens_t, %struct.libraw_dnglens_t, %struct.libraw_makernotes_lens_t }
%struct.libraw_nikonlens_t = type { float, i8, i8, i8, i8 }
%struct.libraw_dnglens_t = type { float, float, float, float }
%struct.libraw_makernotes_lens_t = type { i64, [128 x i8], i16, i16, i64, i16, i16, [64 x i8], i16, [16 x i8], [16 x i8], float, float, float, float, float, float, float, float, float, float, float, float, float, float, float, i64, [128 x i8], i64, [128 x i8], i64, [128 x i8], i16, float }
%struct.libraw_makernotes_t = type { %struct.libraw_canon_makernotes_t, %struct.libraw_nikon_makernotes_t, %struct.libraw_hasselblad_makernotes_t, %struct.libraw_fuji_info_t, %struct.libraw_olympus_makernotes_t, %struct.libraw_sony_info_t, %struct.libraw_kodak_makernotes_t, %struct.libraw_panasonic_makernotes_t, %struct.libraw_pentax_makernotes_t, %struct.libraw_p1_makernotes_t, %struct.libraw_ricoh_makernotes_t, %struct.libraw_samsung_makernotes_t, %struct.libraw_metadata_common_t }
%struct.libraw_canon_makernotes_t = type { i32, i32, i32, i32, [4 x i32], i32, [4 x i32], i16, i16, i8, i16, i16, i16, i16, i16, i16, i16, i16, i16, i16, i16, i16, i16, i32, float, i16, i16, i16, i32, i16, i32, i32, i16, i32, %struct.libraw_area_t, %struct.libraw_area_t, %struct.libraw_area_t, %struct.libraw_area_t, %struct.libraw_area_t, [2 x i16] }
%struct.libraw_area_t = type { i16, i16, i16, i16 }
%struct.libraw_nikon_makernotes_t = type { double, i16, i16, [7 x i8], i8, i8, [13 x i8], [20 x i8], [4 x i8], [4 x i8], [4 x i8], i8, i8, i8, i8, i8, [2 x i8], i8, i8, i8, i8, i8, [4 x i8], [4 x i8], i8, i16, i32, i32, i32, i32, [4 x double], i8, i8, i8, i32, i32, i32, i8, [4 x i16], i16, %struct.libraw_sensor_highspeed_crop_t, i16, i16, i16, i32, [20 x i8], [20 x i8], i32, i16, double, double, double }
%struct.libraw_sensor_highspeed_crop_t = type { i16, i16, i16, i16 }
%struct.libraw_hasselblad_makernotes_t = type { i32, double, [8 x i8], [64 x i8], [64 x i8], i32, i32, i32, i32, [32 x i8], [64 x i8], i32, [2 x i32], [2 x i32], [4 x [3 x double]] }
%struct.libraw_fuji_info_t = type { float, i16, i16, i16, i16, i16, i16, i16, i16, [33 x i8], [33 x i8], float, i16, i16, [2 x i16], i16, i32, i32, i16, [3 x i16], i16, i16, i16, i16, i16, i32, i16, [13 x i8], [5 x i8], [5 x i8], i32, i16, i32, i16, [9 x i16], [32 x i32], i32, i32, i32, [2 x float], i32 }
%struct.libraw_olympus_makernotes_t = type { [6 x i8], i16, [2 x i32], [5 x i16], i16, [2 x i16], i16, i16, [64 x i32], [5 x double], i16, i8, [3 x i16], [3 x i32], i16, i16, i16, i16, double, [4 x i16], [2 x i32], i8, i32, i16, i16 }
%struct.libraw_sony_info_t = type { i16, i8, i8, i32, i8, i32, i8, i8, i16, [2 x i16], i8, i8, i16, [10 x i8], i8, i8, [4 x i16], i16, i8, i8, i8, i16, i32, i16, [2 x i16], i16, i16, i16, i16, i16, i16, i16, i32, float, i16, i32, i32, i16, [20 x i8], i32, i16, i32, i8, i8, i16, i16, i16, i16, i16, i16, i16, i16, i16, i32, i16, [16 x i8], float }
%struct.libraw_kodak_makernotes_t = type { i16, i16, i16, i16, i16, i16, [3 x [3 x float]], [3 x [3 x float]], [3 x [3 x float]], [3 x [3 x float]], [3 x [3 x float]], [3 x [3 x float]], i16, i16, i16, i16, float, float }
%struct.libraw_panasonic_makernotes_t = type { i16, i16, [8 x float], i32, float, [3 x i32], i16, i16, i32, i32 }
%struct.libraw_pentax_makernotes_t = type { [4 x i8], [2 x i16], [2 x i16], i16, i32, i32, i16, i16, i8, i8, i16 }
%struct.libraw_p1_makernotes_t = type { [64 x i8], [64 x i8], [256 x i8], [64 x i8] }
%struct.libraw_ricoh_makernotes_t = type { i16, [2 x i32], [2 x i32], i16, i32, i32, i32, i32, i16, i16, i16, i16, i16, i16, double, double }
%struct.libraw_samsung_makernotes_t = type { [4 x i32], [4 x i32], [2 x i32], [11 x i32], double, i32, [32 x i8] }
%struct.libraw_metadata_common_t = type { float, float, float, float, float, float, float, float, float, float, float, float, float, float, float, float, i16, [128 x i8], float, [4 x %struct.libraw_afinfo_item_t], i32 }
%struct.libraw_afinfo_item_t = type { i32, i16, i32, i32, ptr }
%struct.libraw_shootinginfo_t = type { i16, i16, i16, i16, i16, i16, i16, [64 x i8], [64 x i8] }
%struct.libraw_output_params_t = type { [4 x i32], [4 x i32], [4 x double], [6 x double], [4 x float], float, float, i32, i32, i32, i32, i32, i32, i32, ptr, ptr, ptr, ptr, i32, i32, i32, i32, i32, i32, [4 x i32], i32, i32, float, float, i32, i32, i32, i32, i32, i32, i32, i32, float, float, i32, i32 }
%struct.libraw_raw_unpack_params_t = type { i32, i32, i32, i32, i32, i32, i32, float, [5 x i8], ptr }
%struct.libraw_colordata_t = type { [65536 x i16], [4104 x i32], i32, i32, i32, [4 x i64], float, float, [8 x [8 x i16]], [4 x float], [4 x float], [3 x [4 x float]], [3 x [4 x float]], [3 x [4 x float]], [4 x [3 x float]], %struct.ph1_t, float, float, [64 x i8], [64 x i8], [64 x i8], [64 x i8], [17 x i8], [64 x i8], ptr, i32, [8 x i32], [2 x %struct.libraw_dng_color_t], %struct.libraw_dng_levels_t, [256 x [4 x i32]], [64 x [5 x float]], i32, [2 x %struct.libraw_P1_color_t], i32, i32 }
%struct.ph1_t = type { i32, i32, i32, i32, i32, i32, i32, i32, float }
%struct.libraw_dng_color_t = type { i32, i16, [4 x [4 x float]], [4 x [3 x float]], [3 x [4 x float]] }
%struct.libraw_dng_levels_t = type { i32, [4104 x i32], i32, [4104 x float], float, [4 x i32], [4 x i16], [4 x float], i32, [4 x float], [4 x float], float, float }
%struct.libraw_P1_color_t = type { [9 x float] }
%struct.libraw_imgother_t = type { float, float, float, float, i64, i32, [32 x i32], %struct.libraw_gps_info_t, [512 x i8], [64 x i8], [4 x float] }
%struct.libraw_gps_info_t = type { [3 x float], [3 x float], [3 x float], float, i8, i8, i8, i8, i8 }
%struct.libraw_thumbnail_t = type { i32, i16, i16, i32, i32, ptr }
%struct.libraw_thumbnail_list_t = type { i32, [8 x %struct.libraw_thumbnail_item_t] }
%struct.libraw_thumbnail_item_t = type { i32, i16, i16, i16, i32, i32, i64 }
%struct.libraw_rawdata_t = type { ptr, ptr, ptr, ptr, ptr, ptr, ptr, ptr, ptr, %struct.libraw_iparams_t, %struct.libraw_image_sizes_t, %struct.libraw_internal_output_params_t, %struct.libraw_colordata_t }
%struct.libraw_internal_output_params_t = type { i32, i32, i32, i16, i16 }
%struct.libraw_internal_data_t = type { %struct.internal_data_t, %struct.libraw_internal_output_params_t, %struct.output_data_t, %struct.identify_data_t, %struct.unpacker_data_t }
%struct.internal_data_t = type { ptr, ptr, i32, ptr, i64, i64, [4 x i32] }
%struct.output_data_t = type { ptr, ptr }
%struct.identify_data_t = type { i32, i64, i64, i32, i32, i32 }
%struct.unpacker_data_t = type { i16, [4 x i16], [3 x i16], i32, i64, i64, i64, i64, i64, i64, i32, i32, i32, i32, i32, i32, i32, i32, i32, i32, i32, i32, i32, i32, i32, i32, i32, i64, i32, i32, i32, i32, i32, i32, i32, i32, i32, %struct.pana8_tags_t, [16 x %struct.crx_data_header_t], i32, i32, i16, i16, i32, i32, i32, i32, i32, i32, i32, [20 x i32], i16 }
%struct.pana8_tags_t = type { [6 x i32], [6 x i16], i16, [4 x i16], [17 x i16], [17 x i16], [17 x i16], i16, i16, [5 x i64], [5 x i16], [5 x i32], [5 x i16], [5 x i16] }
%struct.crx_data_header_t = type { i32, i32, i32, i32, i32, i32, i32, i32, i32, i32, i32, i32, i32, i32, i32, i64, i32, ptr, i32, i32, i32, ptr, i32, ptr }
%struct.decode = type { [2 x ptr], i32 }
%struct.tiff_ifd_t = type { i32, i32, i32, i32, i32, i32, i32, i32, i32, i32, i32, i32, i32, i32, i32, ptr, i32, ptr, i32, i32, i32, i32, i32, i32, i32, float, i64, i64, i32, [2 x %struct.libraw_dng_color_t], %struct.libraw_dng_levels_t, i32 }
%class.libraw_memmgr = type <{ ptr, i32, [4 x i8] }>
%struct.libraw_callbacks_t = type { ptr, ptr, ptr, ptr, ptr, ptr, ptr, ptr, ptr, ptr, ptr, ptr, ptr, ptr, ptr, ptr, ptr }

@__const._ZN6LibRaw16Kodak_DCR_WBtagsEiji.mul = private unnamed_addr constant [3 x float] [float 1.000000e+00, float 1.000000e+00, float 1.000000e+00], align 4

; Function Attrs: mustprogress uwtable
define void @_ZN6LibRaw16Kodak_DCR_WBtagsEiji(ptr noundef nonnull align 8 dereferenceable(767680) %0, i32 noundef %1, i32 noundef %2, i32 noundef %3) #0 align 2 {
  %5 = alloca ptr, align 8
  %6 = alloca i32, align 4
  %7 = alloca i32, align 4
  %8 = alloca i32, align 4
  %9 = alloca [3 x float], align 4
  %10 = alloca float, align 4
  %11 = alloca float, align 4
  %12 = alloca i32, align 4
  store ptr %0, ptr %5, align 8, !tbaa !6
  store i32 %1, ptr %6, align 4, !tbaa !11
  store i32 %2, ptr %7, align 4, !tbaa !11
  store i32 %3, ptr %8, align 4, !tbaa !11
  %13 = load ptr, ptr %5, align 8
  call void @llvm.lifetime.start.p0(i64 12, ptr %9) #8
  call void @llvm.memcpy.p0.p0.i64(ptr align 4 %9, ptr align 4 @__const._ZN6LibRaw16Kodak_DCR_WBtagsEiji.mul, i64 12, i1 false)
  call void @llvm.lifetime.start.p0(i64 4, ptr %10) #8
  call void @llvm.lifetime.start.p0(i64 4, ptr %11) #8
  call void @llvm.lifetime.start.p0(i64 4, ptr %12) #8
  store i32 0, ptr %12, align 4, !tbaa !11
  br label %14

14:                                               ; preds = %30, %4
  %15 = load i32, ptr %12, align 4, !tbaa !11
  %16 = icmp slt i32 %15, 3
  br i1 %16, label %17, label %33

17:                                               ; preds = %14
  %18 = load i32, ptr %7, align 4, !tbaa !11
  %19 = call reassoc nsz arcp contract afn noundef double @_ZN6LibRaw7getrealEi(ptr noundef nonnull align 8 dereferenceable(767680) %13, i32 noundef %18)
  %20 = fptrunc reassoc nsz arcp contract afn double %19 to float
  store float %20, ptr %10, align 4, !tbaa !15
  %21 = fcmp reassoc nsz arcp contract afn ole float %20, 0x3F50624DE0000000
  br i1 %21, label %22, label %23

22:                                               ; preds = %17
  br label %25

23:                                               ; preds = %17
  %24 = load float, ptr %10, align 4, !tbaa !15
  br label %25

25:                                               ; preds = %23, %22
  %26 = phi reassoc nsz arcp contract afn float [ 1.000000e+00, %22 ], [ %24, %23 ]
  %27 = load i32, ptr %12, align 4, !tbaa !11
  %28 = sext i32 %27 to i64
  %29 = getelementptr inbounds [3 x float], ptr %9, i64 0, i64 %28
  store float %26, ptr %29, align 4, !tbaa !15
  br label %30

30:                                               ; preds = %25
  %31 = load i32, ptr %12, align 4, !tbaa !11
  %32 = add nsw i32 %31, 1
  store i32 %32, ptr %12, align 4, !tbaa !11
  br label %14, !llvm.loop !18

33:                                               ; preds = %14
  %34 = getelementptr inbounds [3 x float], ptr %9, i64 0, i64 1
  %35 = load float, ptr %34, align 4, !tbaa !15
  %36 = fptosi float %35 to i32
  %37 = getelementptr inbounds nuw %class.LibRaw, ptr %13, i32 0, i32 1
  %38 = getelementptr inbounds nuw %struct.libraw_data_t, ptr %37, i32 0, i32 10
  %39 = getelementptr inbounds nuw %struct.libraw_colordata_t, ptr %38, i32 0, i32 29
  %40 = load i32, ptr %6, align 4, !tbaa !11
  %41 = sext i32 %40 to i64
  %42 = getelementptr inbounds [256 x [4 x i32]], ptr %39, i64 0, i64 %41
  %43 = getelementptr inbounds [4 x i32], ptr %42, i64 0, i64 3
  store i32 %36, ptr %43, align 4, !tbaa !11
  %44 = getelementptr inbounds nuw %class.LibRaw, ptr %13, i32 0, i32 1
  %45 = getelementptr inbounds nuw %struct.libraw_data_t, ptr %44, i32 0, i32 10
  %46 = getelementptr inbounds nuw %struct.libraw_colordata_t, ptr %45, i32 0, i32 29
  %47 = load i32, ptr %6, align 4, !tbaa !11
  %48 = sext i32 %47 to i64
  %49 = getelementptr inbounds [256 x [4 x i32]], ptr %46, i64 0, i64 %48
  %50 = getelementptr inbounds [4 x i32], ptr %49, i64 0, i64 1
  store i32 %36, ptr %50, align 4, !tbaa !11
  %51 = getelementptr inbounds [3 x float], ptr %9, i64 0, i64 1
  %52 = load float, ptr %51, align 4, !tbaa !15
  %53 = getelementptr inbounds [3 x float], ptr %9, i64 0, i64 1
  %54 = load float, ptr %53, align 4, !tbaa !15
  %55 = fmul reassoc nsz arcp contract afn float %52, %54
  store float %55, ptr %11, align 4, !tbaa !15
  %56 = load float, ptr %11, align 4, !tbaa !15
  %57 = getelementptr inbounds [3 x float], ptr %9, i64 0, i64 0
  %58 = load float, ptr %57, align 4, !tbaa !15
  %59 = fdiv reassoc nsz arcp contract afn float %56, %58
  %60 = fptosi float %59 to i32
  %61 = getelementptr inbounds nuw %class.LibRaw, ptr %13, i32 0, i32 1
  %62 = getelementptr inbounds nuw %struct.libraw_data_t, ptr %61, i32 0, i32 10
  %63 = getelementptr inbounds nuw %struct.libraw_colordata_t, ptr %62, i32 0, i32 29
  %64 = load i32, ptr %6, align 4, !tbaa !11
  %65 = sext i32 %64 to i64
  %66 = getelementptr inbounds [256 x [4 x i32]], ptr %63, i64 0, i64 %65
  %67 = getelementptr inbounds [4 x i32], ptr %66, i64 0, i64 0
  store i32 %60, ptr %67, align 4, !tbaa !11
  %68 = load float, ptr %11, align 4, !tbaa !15
  %69 = getelementptr inbounds [3 x float], ptr %9, i64 0, i64 2
  %70 = load float, ptr %69, align 4, !tbaa !15
  %71 = fdiv reassoc nsz arcp contract afn float %68, %70
  %72 = fptosi float %71 to i32
  %73 = getelementptr inbounds nuw %class.LibRaw, ptr %13, i32 0, i32 1
  %74 = getelementptr inbounds nuw %struct.libraw_data_t, ptr %73, i32 0, i32 10
  %75 = getelementptr inbounds nuw %struct.libraw_colordata_t, ptr %74, i32 0, i32 29
  %76 = load i32, ptr %6, align 4, !tbaa !11
  %77 = sext i32 %76 to i64
  %78 = getelementptr inbounds [256 x [4 x i32]], ptr %75, i64 0, i64 %77
  %79 = getelementptr inbounds [4 x i32], ptr %78, i64 0, i64 2
  store i32 %72, ptr %79, align 4, !tbaa !11
  %80 = load i32, ptr %8, align 4, !tbaa !11
  %81 = load i32, ptr %6, align 4, !tbaa !11
  %82 = icmp eq i32 %80, %81
  br i1 %82, label %83, label %109

83:                                               ; preds = %33
  store i32 0, ptr %12, align 4, !tbaa !11
  br label %84

84:                                               ; preds = %105, %83
  %85 = load i32, ptr %12, align 4, !tbaa !11
  %86 = icmp slt i32 %85, 4
  br i1 %86, label %87, label %108

87:                                               ; preds = %84
  %88 = getelementptr inbounds nuw %class.LibRaw, ptr %13, i32 0, i32 1
  %89 = getelementptr inbounds nuw %struct.libraw_data_t, ptr %88, i32 0, i32 10
  %90 = getelementptr inbounds nuw %struct.libraw_colordata_t, ptr %89, i32 0, i32 29
  %91 = load i32, ptr %6, align 4, !tbaa !11
  %92 = sext i32 %91 to i64
  %93 = getelementptr inbounds [256 x [4 x i32]], ptr %90, i64 0, i64 %92
  %94 = load i32, ptr %12, align 4, !tbaa !11
  %95 = sext i32 %94 to i64
  %96 = getelementptr inbounds [4 x i32], ptr %93, i64 0, i64 %95
  %97 = load i32, ptr %96, align 4, !tbaa !11
  %98 = sitofp i32 %97 to float
  %99 = getelementptr inbounds nuw %class.LibRaw, ptr %13, i32 0, i32 1
  %100 = getelementptr inbounds nuw %struct.libraw_data_t, ptr %99, i32 0, i32 10
  %101 = getelementptr inbounds nuw %struct.libraw_colordata_t, ptr %100, i32 0, i32 9
  %102 = load i32, ptr %12, align 4, !tbaa !11
  %103 = sext i32 %102 to i64
  %104 = getelementptr inbounds [4 x float], ptr %101, i64 0, i64 %103
  store float %98, ptr %104, align 4, !tbaa !15
  br label %105

105:                                              ; preds = %87
  %106 = load i32, ptr %12, align 4, !tbaa !11
  %107 = add nsw i32 %106, 1
  store i32 %107, ptr %12, align 4, !tbaa !11
  br label %84, !llvm.loop !19

108:                                              ; preds = %84
  br label %109

109:                                              ; preds = %108, %33
  call void @llvm.lifetime.end.p0(i64 4, ptr %12) #8
  call void @llvm.lifetime.end.p0(i64 4, ptr %11) #8
  call void @llvm.lifetime.end.p0(i64 4, ptr %10) #8
  call void @llvm.lifetime.end.p0(i64 12, ptr %9) #8
  ret void
}