; Function Attrs: mustprogress uwtable
define void @_ZN6LibRaw16Kodak_DCR_WBtagsEiji(ptr noundef nonnull align 8 dereferenceable(767680) %0, i32 noundef %1, i32 noundef %2, i32 noundef %3) local_unnamed_addr #0 align 2 {
  %5 = alloca [3 x float], align 4
  call void @llvm.lifetime.start.p0(i64 12, ptr nonnull %5) #10
  call void @llvm.memcpy.p0.p0.i64(ptr noundef nonnull align 4 dereferenceable(12) %5, ptr noundef nonnull align 4 dereferenceable(12) @__const._ZN6LibRaw16Kodak_DCR_WBtagsEiji.mul, i64 12, i1 false)
  br label %6

6:                                                ; preds = %4, %6
  %indvars.iv = phi i64 [ 0, %4 ], [ %indvars.iv.next, %6 ]
  %7 = tail call reassoc nsz arcp contract afn noundef double @_ZN6LibRaw7getrealEi(ptr noundef nonnull align 8 dereferenceable(767680) %0, i32 noundef %2)
  %8 = fptrunc reassoc nsz arcp contract afn double %7 to float
  %9 = fcmp reassoc nsz arcp contract afn ole float %8, 0x3F50624DE0000000
  %10 = select reassoc nsz arcp contract afn i1 %9, float 1.000000e+00, float %8
  %11 = getelementptr inbounds nuw [3 x float], ptr %5, i64 0, i64 %indvars.iv
  store float %10, ptr %11, align 4, !tbaa !12
  %indvars.iv.next = add nuw nsw i64 %indvars.iv, 1
  %exitcond.not = icmp eq i64 %indvars.iv.next, 3
  br i1 %exitcond.not, label %12, label %6, !llvm.loop !15

12:                                               ; preds = %6
  %13 = getelementptr inbounds nuw i8, ptr %5, i64 4
  %14 = load float, ptr %13, align 4, !tbaa !12
  %15 = fptosi float %14 to i32
  %16 = getelementptr inbounds nuw i8, ptr %0, i64 187092
  %17 = sext i32 %1 to i64
  %18 = getelementptr inbounds [256 x [4 x i32]], ptr %16, i64 0, i64 %17
  %19 = getelementptr inbounds nuw i8, ptr %18, i64 12
  store i32 %15, ptr %19, align 8, !tbaa !6
  %20 = getelementptr inbounds nuw i8, ptr %18, i64 4
  store i32 %15, ptr %20, align 8, !tbaa !6
  %21 = fmul reassoc nsz arcp contract afn float %14, %14
  %22 = load float, ptr %5, align 4, !tbaa !12
  %23 = fdiv reassoc nsz arcp contract afn float %21, %22
  %24 = fptosi float %23 to i32
  store i32 %24, ptr %18, align 4, !tbaa !6
  %25 = getelementptr inbounds nuw i8, ptr %5, i64 8
  %26 = load float, ptr %25, align 4, !tbaa !12
  %27 = fdiv reassoc nsz arcp contract afn float %21, %26
  %28 = fptosi float %27 to i32
  %29 = getelementptr inbounds nuw i8, ptr %18, i64 8
  store i32 %28, ptr %29, align 4, !tbaa !6
  %30 = icmp eq i32 %3, %1
  br i1 %30, label %.preheader, label %.loopexit

.preheader:                                       ; preds = %12
  %31 = getelementptr inbounds nuw i8, ptr %0, i64 153176
  br label %32

32:                                               ; preds = %.preheader, %32
  %indvars.iv21 = phi i64 [ 0, %.preheader ], [ %indvars.iv.next22, %32 ]
  %33 = getelementptr inbounds [256 x [4 x i32]], ptr %16, i64 0, i64 %17, i64 %indvars.iv21
  %34 = load i32, ptr %33, align 4, !tbaa !6
  %35 = sitofp i32 %34 to float
  %36 = getelementptr inbounds nuw [4 x float], ptr %31, i64 0, i64 %indvars.iv21
  store float %35, ptr %36, align 4, !tbaa !12
  %indvars.iv.next22 = add nuw nsw i64 %indvars.iv21, 1
  %exitcond24.not = icmp eq i64 %indvars.iv.next22, 4
  br i1 %exitcond24.not, label %.loopexit, label %32, !llvm.loop !16

.loopexit:                                        ; preds = %32, %12
  call void @llvm.lifetime.end.p0(i64 12, ptr nonnull %5) #10
  ret void
}